target datalayout = "e-m:e-p270:32:32-p271:32:32-p272:64:64-i64:64-i128:128-f80:128-n8:16:32:64-S128"
target triple = "x86_64-pc-linux-gnu"

%"struct.VMATree::RegionData" = type <{ %"struct.NativeCallStackStorage::StackIndex", i8, [3 x i8] }>
%"struct.NativeCallStackStorage::StackIndex" = type { i32 }
%"struct.VMATree::SummaryDiff" = type { [28 x %"struct.VMATree::SingleDiff"] }
%"struct.VMATree::SingleDiff" = type { i64, i64 }
%"class.MemoryFileTracker::MemoryFile" = type { ptr, %class.VirtualMemorySnapshot, %class.VMATree }
%class.VirtualMemorySnapshot = type { [28 x %class.VirtualMemory] }
%class.VirtualMemory = type { i64, i64, i64 }
%class.VMATree = type { %class.Treap }
%class.Treap = type <{ %class.TreapCHeapAllocator, [7 x i8], ptr, i64, i32, [4 x i8] }>
%class.TreapCHeapAllocator = type { i8 }

@_ZN17MemoryFileTracker8Instance8_trackerE = hidden global ptr null, align 8
@_ZN7VMATree16empty_regiondataE = external global %"struct.VMATree::RegionData", align 4

; Function Attrs: mustprogress nounwind uwtable
define linkonce_odr hidden noundef i32 @_ZN7NMTUtil13flag_to_indexE8MEMFLAGS(i8 noundef zeroext %0) #1 comdat align 2 {
  %2 = alloca i8, align 1
  store i8 %0, ptr %2, align 1
  %3 = load i8, ptr %2, align 1
  %4 = zext i8 %3 to i32
  ret i32 %4
}

; Function Attrs: mustprogress nounwind uwtable
define linkonce_odr hidden void @_ZN13VirtualMemory13commit_memoryEm(ptr noundef nonnull align 8 dereferenceable(24) %0, i64 noundef %1) #1 comdat align 2 {
  %3 = alloca ptr, align 8
  %4 = alloca i64, align 8
  store ptr %0, ptr %3, align 8
  store i64 %1, ptr %4, align 8
  %5 = load ptr, ptr %3, align 8
  %6 = load i64, ptr %4, align 8
  %7 = getelementptr inbounds %class.VirtualMemory, ptr %5, i32 0, i32 1
  %8 = load i64, ptr %7, align 8
  %9 = add i64 %8, %6
  store i64 %9, ptr %7, align 8
  %10 = getelementptr inbounds %class.VirtualMemory, ptr %5, i32 0, i32 1
  %11 = load i64, ptr %10, align 8
  call void @_ZN13VirtualMemory11update_peakEm(ptr noundef nonnull align 8 dereferenceable(24) %5, i64 noundef %11)
  ret void
}

; Function Attrs: mustprogress nounwind uwtable
define linkonce_odr hidden void @_ZN13VirtualMemory14reserve_memoryEm(ptr noundef nonnull align 8 dereferenceable(24) %0, i64 noundef %1) #1 comdat align 2 {
  %3 = alloca ptr, align 8
  %4 = alloca i64, align 8
  store ptr %0, ptr %3, align 8
  store i64 %1, ptr %4, align 8
  %5 = load ptr, ptr %3, align 8
  %6 = load i64, ptr %4, align 8
  %7 = getelementptr inbounds %class.VirtualMemory, ptr %5, i32 0, i32 0
  %8 = load i64, ptr %7, align 8
  %9 = add i64 %8, %6
  store i64 %9, ptr %7, align 8
  ret void
}

; Function Attrs: mustprogress nounwind uwtable
define linkonce_odr hidden noundef ptr @_ZN21VirtualMemorySnapshot7by_typeE8MEMFLAGS(ptr noundef nonnull align 8 dereferenceable(672) %0, i8 noundef zeroext %1) #1 comdat align 2 {
  %3 = alloca ptr, align 8
  %4 = alloca i8, align 1
  %5 = alloca i32, align 4
  store ptr %0, ptr %3, align 8
  store i8 %1, ptr %4, align 1
  %6 = load ptr, ptr %3, align 8
  %7 = load i8, ptr %4, align 1
  %8 = call noundef i32 @_ZN7NMTUtil13flag_to_indexE8MEMFLAGS(i8 noundef zeroext %7)
  store i32 %8, ptr %5, align 4
  %9 = getelementptr inbounds %class.VirtualMemorySnapshot, ptr %6, i32 0, i32 0
  %10 = load i32, ptr %5, align 4
  %11 = sext i32 %10 to i64
  %12 = getelementptr inbounds [28 x %class.VirtualMemory], ptr %9, i64 0, i64 %11
  ret ptr %12
}

; Function Attrs: mustprogress nounwind uwtable
define linkonce_odr hidden noundef zeroext i8 @_ZN7NMTUtil13index_to_flagEi(i32 noundef %0) #1 comdat align 2 {
  %2 = alloca i32, align 4
  store i32 %0, ptr %2, align 4
  %3 = load i32, ptr %2, align 4
  %4 = trunc i32 %3 to i8
  ret i8 %4
}

; Function Attrs: mustprogress nounwind uwtable
define linkonce_odr hidden void @_ZN7VMATree15release_mappingEmm(ptr dead_on_unwind noalias writable sret(%"struct.VMATree::SummaryDiff") align 8 %0, ptr noundef nonnull align 8 dereferenceable(32) %1, i64 noundef %2, i64 noundef %3) #1 comdat align 2 {
  %5 = alloca ptr, align 8
  %6 = alloca i64, align 8
  %7 = alloca i64, align 8
  store ptr %1, ptr %5, align 8
  store i64 %2, ptr %6, align 8
  store i64 %3, ptr %7, align 8
  %8 = load ptr, ptr %5, align 8
  %9 = load i64, ptr %6, align 8
  %10 = load i64, ptr %6, align 8
  %11 = load i64, ptr %7, align 8
  %12 = add i64 %10, %11
  call void @_ZN7VMATree16register_mappingEmmNS_9StateTypeERKNS_10RegionDataE(ptr dead_on_unwind writable sret(%"struct.VMATree::SummaryDiff") align 8 %0, ptr noundef nonnull align 8 dereferenceable(32) %8, i64 noundef %9, i64 noundef %12, i8 noundef zeroext 2, ptr noundef nonnull align 4 dereferenceable(5) @_ZN7VMATree16empty_regiondataE)
  ret void
}

; Function Attrs: mustprogress nounwind uwtable
define hidden void @_ZN17MemoryFileTracker11free_memoryEPNS_10MemoryFileEmm(ptr noundef nonnull align 8 dereferenceable(112) %0, ptr noundef %1, i64 noundef %2, i64 noundef %3) #1 align 2 {
  %5 = alloca ptr, align 8
  %6 = alloca ptr, align 8
  %7 = alloca i64, align 8
  %8 = alloca i64, align 8
  %9 = alloca %"struct.VMATree::SummaryDiff", align 8
  %10 = alloca i32, align 4
  %11 = alloca ptr, align 8
  store ptr %0, ptr %5, align 8
  store ptr %1, ptr %6, align 8
  store i64 %2, ptr %7, align 8
  store i64 %3, ptr %8, align 8
  %12 = load ptr, ptr %6, align 8
  %13 = getelementptr inbounds %"class.MemoryFileTracker::MemoryFile", ptr %12, i32 0, i32 2
  %14 = load i64, ptr %7, align 8
  %15 = load i64, ptr %8, align 8
  call void @_ZN7VMATree15release_mappingEmm(ptr dead_on_unwind writable sret(%"struct.VMATree::SummaryDiff") align 8 %9, ptr noundef nonnull align 8 dereferenceable(32) %13, i64 noundef %14, i64 noundef %15)
  store i32 0, ptr %10, align 4
  br label %16

16:                                               ; preds = %39, %4
  %17 = load i32, ptr %10, align 4
  %18 = icmp slt i32 %17, 28
  br i1 %18, label %19, label %42

19:                                               ; preds = %16
  %20 = load ptr, ptr %6, align 8
  %21 = getelementptr inbounds %"class.MemoryFileTracker::MemoryFile", ptr %20, i32 0, i32 1
  %22 = load i32, ptr %10, align 4
  %23 = call noundef zeroext i8 @_ZN7NMTUtil13index_to_flagEi(i32 noundef %22)
  %24 = call noundef ptr @_ZN21VirtualMemorySnapshot7by_typeE8MEMFLAGS(ptr noundef nonnull align 8 dereferenceable(672) %21, i8 noundef zeroext %23)
  store ptr %24, ptr %11, align 8
  %25 = load ptr, ptr %11, align 8
  %26 = getelementptr inbounds %"struct.VMATree::SummaryDiff", ptr %9, i32 0, i32 0
  %27 = load i32, ptr %10, align 4
  %28 = sext i32 %27 to i64
  %29 = getelementptr inbounds [28 x %"struct.VMATree::SingleDiff"], ptr %26, i64 0, i64 %28
  %30 = getelementptr inbounds %"struct.VMATree::SingleDiff", ptr %29, i32 0, i32 1
  %31 = load i64, ptr %30, align 8
  call void @_ZN13VirtualMemory14reserve_memoryEm(ptr noundef nonnull align 8 dereferenceable(24) %25, i64 noundef %31)
  %32 = load ptr, ptr %11, align 8
  %33 = getelementptr inbounds %"struct.VMATree::SummaryDiff", ptr %9, i32 0, i32 0
  %34 = load i32, ptr %10, align 4
  %35 = sext i32 %34 to i64
  %36 = getelementptr inbounds [28 x %"struct.VMATree::SingleDiff"], ptr %33, i64 0, i64 %35
  %37 = getelementptr inbounds %"struct.VMATree::SingleDiff", ptr %36, i32 0, i32 1
  %38 = load i64, ptr %37, align 8
  call void @_ZN13VirtualMemory13commit_memoryEm(ptr noundef nonnull align 8 dereferenceable(24) %32, i64 noundef %38)
  br label %39

39:                                               ; preds = %19
  %40 = load i32, ptr %10, align 4
  %41 = add nsw i32 %40, 1
  store i32 %41, ptr %10, align 4
  br label %16, !llvm.loop !8

42:                                               ; preds = %16
  ret void
}

; Function Attrs: mustprogress nounwind uwtable
define hidden void @_ZN17MemoryFileTracker8Instance11free_memoryEPNS_10MemoryFileEmm(ptr noundef %0, i64 noundef %1, i64 noundef %2) #1 align 2 {
  %4 = alloca ptr, align 8
  %5 = alloca i64, align 8
  %6 = alloca i64, align 8
  store ptr %0, ptr %4, align 8
  store i64 %1, ptr %5, align 8
  store i64 %2, ptr %6, align 8
  %7 = load ptr, ptr @_ZN17MemoryFileTracker8Instance8_trackerE, align 8
  %8 = load ptr, ptr %4, align 8
  %9 = load i64, ptr %5, align 8
  %10 = load i64, ptr %6, align 8
  call void @_ZN17MemoryFileTracker11free_memoryEPNS_10MemoryFileEmm(ptr noundef nonnull align 8 dereferenceable(112) %7, ptr noundef %8, i64 noundef %9, i64 noundef %10)
  ret void
}