; Function Attrs: mustprogress nounwind uwtable
define hidden void @_ZN17MemoryFileTracker8Instance11free_memoryEPNS_10MemoryFileEmm(ptr noundef %0, i64 noundef %1, i64 noundef %2) local_unnamed_addr #0 align 2 {
  %4 = alloca %"struct.VMATree::SummaryDiff", align 8
  call void @llvm.lifetime.start.p0(i64 448, ptr nonnull %4)
  %5 = getelementptr inbounds i8, ptr %0, i64 680
  %6 = add i64 %2, %1
  call void @_ZN7VMATree16register_mappingEmmNS_9StateTypeERKNS_10RegionDataE(ptr dead_on_unwind nonnull writable sret(%"struct.VMATree::SummaryDiff") align 8 %4, ptr noundef nonnull align 8 dereferenceable(32) %5, i64 noundef %1, i64 noundef %6, i8 noundef zeroext 2, ptr noundef nonnull align 4 dereferenceable(5) @_ZN7VMATree16empty_regiondataE) #10
  %7 = getelementptr inbounds i8, ptr %0, i64 8
  br label %8

8:                                                ; preds = %8, %3
  %indvars.iv.i = phi i64 [ 0, %3 ], [ %indvars.iv.next.i, %8 ]
  %9 = getelementptr inbounds [28 x %class.VirtualMemory], ptr %7, i64 0, i64 %indvars.iv.i
  %10 = getelementptr inbounds [28 x %"struct.VMATree::SingleDiff"], ptr %4, i64 0, i64 %indvars.iv.i, i32 1
  %11 = load i64, ptr %10, align 8
  %12 = load i64, ptr %9, align 8
  %13 = add i64 %12, %11
  store i64 %13, ptr %9, align 8
  %14 = getelementptr inbounds i8, ptr %9, i64 8
  %15 = load i64, ptr %14, align 8
  %16 = add i64 %15, %11
  store i64 %16, ptr %14, align 8
  call void @_ZN13VirtualMemory11update_peakEm(ptr noundef nonnull align 8 dereferenceable(24) %9, i64 noundef %16) #10
  %indvars.iv.next.i = add nuw nsw i64 %indvars.iv.i, 1
  %exitcond.not.i = icmp eq i64 %indvars.iv.next.i, 28
  br i1 %exitcond.not.i, label %_ZN17MemoryFileTracker11free_memoryEPNS_10MemoryFileEmm.exit, label %8, !llvm.loop !8

_ZN17MemoryFileTracker11free_memoryEPNS_10MemoryFileEmm.exit: ; preds = %8
  call void @llvm.lifetime.end.p0(i64 448, ptr nonnull %4)
  ret void
}